target datalayout = "e-m:e-p270:32:32-p271:32:32-p272:64:64-i64:64-i128:128-f80:128-n8:16:32:64-S128"
target triple = "x86_64-pc-linux-gnu"

; Function Attrs: inlinehint nounwind uwtable
define internal float @sqrdiff(float noundef %0, float noundef %1) #3 {
  %3 = alloca float, align 4
  %4 = alloca float, align 4
  %5 = alloca float, align 4
  store float %0, ptr %3, align 4, !tbaa !16
  store float %1, ptr %4, align 4, !tbaa !16
  call void @llvm.lifetime.start.p0(i64 4, ptr %5) #9
  %6 = load float, ptr %3, align 4, !tbaa !16
  %7 = load float, ptr %4, align 4, !tbaa !16
  %8 = fsub nsz float %6, %7
  store float %8, ptr %5, align 4, !tbaa !16
  %9 = load float, ptr %5, align 4, !tbaa !16
  %10 = load float, ptr %5, align 4, !tbaa !16
  %11 = fmul nsz float %9, %10
  call void @llvm.lifetime.end.p0(i64 4, ptr %5) #9
  ret float %11
}

; Function Attrs: nounwind uwtable
define internal float @compute_distance_ssd_c(ptr noundef %0, ptr noundef %1, i64 noundef %2) #0 {
  %4 = alloca ptr, align 8
  %5 = alloca ptr, align 8
  %6 = alloca i64, align 8
  %7 = alloca float, align 4
  %8 = alloca i32, align 4
  store ptr %0, ptr %4, align 8, !tbaa !12
  store ptr %1, ptr %5, align 8, !tbaa !12
  store i64 %2, ptr %6, align 8, !tbaa !14
  call void @llvm.lifetime.start.p0(i64 4, ptr %7) #9
  store float 0.000000e+00, ptr %7, align 4, !tbaa !16
  call void @llvm.lifetime.start.p0(i64 4, ptr %8) #9
  %9 = load i64, ptr %6, align 8, !tbaa !14
  %10 = sub nsw i64 0, %9
  %11 = trunc i64 %10 to i32
  store i32 %11, ptr %8, align 4, !tbaa !18
  br label %12

12:                                               ; preds = %32, %3
  %13 = load i32, ptr %8, align 4, !tbaa !18
  %14 = sext i32 %13 to i64
  %15 = load i64, ptr %6, align 8, !tbaa !14
  %16 = icmp sle i64 %14, %15
  br i1 %16, label %18, label %17

17:                                               ; preds = %12
  call void @llvm.lifetime.end.p0(i64 4, ptr %8) #9
  br label %35

18:                                               ; preds = %12
  %19 = load ptr, ptr %4, align 8, !tbaa !12
  %20 = load i32, ptr %8, align 4, !tbaa !18
  %21 = sext i32 %20 to i64
  %22 = getelementptr inbounds float, ptr %19, i64 %21
  %23 = load float, ptr %22, align 4, !tbaa !16
  %24 = load ptr, ptr %5, align 8, !tbaa !12
  %25 = load i32, ptr %8, align 4, !tbaa !18
  %26 = sext i32 %25 to i64
  %27 = getelementptr inbounds float, ptr %24, i64 %26
  %28 = load float, ptr %27, align 4, !tbaa !16
  %29 = call nsz float @sqrdiff(float noundef %23, float noundef %28)
  %30 = load float, ptr %7, align 4, !tbaa !16
  %31 = fadd nsz float %30, %29
  store float %31, ptr %7, align 4, !tbaa !16
  br label %32

32:                                               ; preds = %18
  %33 = load i32, ptr %8, align 4, !tbaa !18
  %34 = add nsw i32 %33, 1
  store i32 %34, ptr %8, align 4, !tbaa !18
  br label %12, !llvm.loop !20

35:                                               ; preds = %17
  %36 = load float, ptr %7, align 4, !tbaa !16
  call void @llvm.lifetime.end.p0(i64 4, ptr %7) #9
  ret float %36
}