; Function Attrs: nofree norecurse nosync nounwind memory(argmem: read) uwtable
define internal float @compute_distance_ssd_c(ptr noundef readonly captures(none) %0, ptr noundef readonly captures(none) %1, i64 noundef %2) #1 {
  %.neg = mul i64 %2, -4294967296
  %4 = ashr exact i64 %.neg, 32
  %.not11 = icmp slt i64 %2, %4
  br i1 %.not11, label %._crit_edge, label %.lr.ph

._crit_edge:                                      ; preds = %.lr.ph, %3
  %.09.lcssa = phi float [ 0.000000e+00, %3 ], [ %11, %.lr.ph ]
  ret float %.09.lcssa

.lr.ph:                                           ; preds = %3, %.lr.ph
  %indvars.iv = phi i64 [ %indvars.iv.next, %.lr.ph ], [ %4, %3 ]
  %.0912 = phi float [ %11, %.lr.ph ], [ 0.000000e+00, %3 ]
  %5 = getelementptr inbounds float, ptr %0, i64 %indvars.iv
  %6 = load float, ptr %5, align 4, !tbaa !10
  %7 = getelementptr inbounds float, ptr %1, i64 %indvars.iv
  %8 = load float, ptr %7, align 4, !tbaa !10
  %9 = fsub nsz float %6, %8
  %10 = fmul nsz float %9, %9
  %11 = fadd nsz float %.0912, %10
  %indvars.iv.next = add nsw i64 %indvars.iv, 1
  %.not.not = icmp sgt i64 %2, %indvars.iv
  br i1 %.not.not, label %.lr.ph, label %._crit_edge, !llvm.loop !12
}